; Function Attrs: mustprogress uwtable
define noundef zeroext i1 @_ZN25VisibilityCheck_ShadowMap11isSupportedEv() local_unnamed_addr #1 align 2 personality ptr @__gxx_personality_v0 {
  %1 = alloca %"class.std::__cxx11::basic_string", align 8
  %2 = alloca %"class.std::allocator.20", align 1
  %3 = tail call ptr @glGetString(i32 noundef 7939)
  call void @_ZNSaIcEC1Ev(ptr noundef nonnull align 1 dereferenceable(1) %2) #21
  invoke void @_ZNSt7__cxx1112basic_stringIcSt11char_traitsIcESaIcEEC1EPKcRKS3_(ptr noundef nonnull align 8 dereferenceable(32) %1, ptr noundef %3, ptr noundef nonnull align 1 dereferenceable(1) %2)
          to label %4 unwind label %13

4:                                                ; preds = %0
  call void @_ZNSaIcED1Ev(ptr noundef nonnull align 1 dereferenceable(1) %2) #21
  %5 = call noundef i64 @_ZNKSt7__cxx1112basic_stringIcSt11char_traitsIcESaIcEE4findEPKcm(ptr noundef nonnull align 8 dereferenceable(32) %1, ptr noundef nonnull @.str, i64 noundef 0) #21
  %.not = icmp eq i64 %5, -1
  br i1 %.not, label %11, label %6

6:                                                ; preds = %4
  %7 = call noundef i64 @_ZNKSt7__cxx1112basic_stringIcSt11char_traitsIcESaIcEE4findEPKcm(ptr noundef nonnull align 8 dereferenceable(32) %1, ptr noundef nonnull @.str.22, i64 noundef 0) #21
  %.not1 = icmp eq i64 %7, -1
  br i1 %.not1, label %11, label %8

8:                                                ; preds = %6
  %9 = call noundef i64 @_ZNKSt7__cxx1112basic_stringIcSt11char_traitsIcESaIcEE4findEPKcm(ptr noundef nonnull align 8 dereferenceable(32) %1, ptr noundef nonnull @.str.23, i64 noundef 0) #21
  %10 = icmp ne i64 %9, -1
  br label %11

11:                                               ; preds = %8, %6, %4
  %12 = phi i1 [ false, %6 ], [ false, %4 ], [ %10, %8 ]
  call void @_ZNSt7__cxx1112basic_stringIcSt11char_traitsIcESaIcEED1Ev(ptr noundef nonnull align 8 dereferenceable(32) %1) #21
  ret i1 %12

13:                                               ; preds = %0
  %14 = landingpad { ptr, i32 }
          cleanup
  call void @_ZNSaIcED1Ev(ptr noundef nonnull align 1 dereferenceable(1) %2) #21
  resume { ptr, i32 } %14
}